; Function Attrs: mustprogress uwtable
define hidden void @_ZplR7obj_refI4expr11ast_managerES3_(ptr dead_on_unwind noalias writable writeonly sret(%class.obj_ref.33) align 8 captures(none) initializes((0, 16)) %0, ptr noundef nonnull readonly align 8 captures(none) dereferenceable(16) %1, ptr noundef nonnull readonly align 8 captures(none) dereferenceable(16) %2) local_unnamed_addr #3 {
  %4 = alloca %class.arith_util, align 8
  %5 = getelementptr inbounds nuw i8, ptr %1, i64 8
  %6 = load ptr, ptr %5, align 8, !tbaa !123
  %7 = load ptr, ptr %1, align 8, !tbaa !125
  %8 = load ptr, ptr %2, align 8, !tbaa !125
  tail call void @llvm.experimental.noalias.scope.decl(metadata !165)
  call void @llvm.lifetime.start.p0(i64 16, ptr nonnull %4) #19, !noalias !165
  call void @_ZN10arith_utilC1ER11ast_manager(ptr noundef nonnull align 8 dereferenceable(16) %4, ptr noundef nonnull align 8 dereferenceable(976) %6), !noalias !165
  %9 = load ptr, ptr %4, align 8, !tbaa !168, !noalias !165
  %10 = call noundef ptr @_ZN11ast_manager6mk_appEiiP4exprS1_(ptr noundef nonnull align 8 dereferenceable(976) %9, i32 noundef 5, i32 noundef 6, ptr noundef %7, ptr noundef %8), !noalias !165
  store ptr %10, ptr %0, align 8, !tbaa !171, !alias.scope !165
  %11 = getelementptr inbounds nuw i8, ptr %0, i64 8
  store ptr %6, ptr %11, align 8, !tbaa !126, !alias.scope !165
  %.not.i.i.i = icmp eq ptr %10, null
  br i1 %.not.i.i.i, label %_ZL4plusR11ast_managerP4exprS2_.exit, label %_ZN11ast_manager7inc_refEP3ast.exit.i.i.i

_ZN11ast_manager7inc_refEP3ast.exit.i.i.i:        ; preds = %3
  %12 = getelementptr inbounds nuw i8, ptr %10, i64 8
  %13 = load i32, ptr %12, align 4, !tbaa !127, !noalias !165
  %14 = add i32 %13, 1
  store i32 %14, ptr %12, align 4, !tbaa !127, !noalias !165
  br label %_ZL4plusR11ast_managerP4exprS2_.exit

_ZL4plusR11ast_managerP4exprS2_.exit:             ; preds = %3, %_ZN11ast_manager7inc_refEP3ast.exit.i.i.i
  call void @llvm.lifetime.end.p0(i64 16, ptr nonnull %4) #19, !noalias !165
  ret void
}